target datalayout = "e-m:e-p270:32:32-p271:32:32-p272:64:64-i64:64-i128:128-f80:128-n8:16:32:64-S128"
target triple = "x86_64-pc-linux-gnu"

%struct.CodedBitstreamContext = type { ptr, ptr, ptr, ptr, i32, i32, i32, ptr, ptr, ptr, ptr, i64 }
%struct.AV1RawFrameHeader = type { i8, i8, i32, i32, i8, i8, i8, i8, i8, i8, i8, i32, i8, i8, i8, [32 x i32], i8, i16, i16, i8, i8, i8, i16, i16, [7 x i8], i8, i8, [8 x i8], i8, i8, i8, [7 x i8], [7 x i32], i8, i8, i8, i8, i8, i8, i8, i8, i8, [64 x i8], [64 x i8], [64 x i8], [64 x i8], i16, i8, i16, i16, i8, i8, i8, i8, i8, i8, i8, i8, i8, i8, i8, i8, i8, i8, i8, [8 x [8 x i8]], [8 x [8 x i16]], i8, i8, i8, i8, i8, [4 x i8], i8, i8, i8, [8 x i8], [8 x i8], [2 x i8], [2 x i8], i8, i8, [8 x i8], [8 x i8], [8 x i8], [8 x i8], [3 x i8], i8, i8, i8, i8, i8, i8, i8, [8 x i8], [8 x i8], [8 x i8], [8 x [6 x i32]], %struct.AV1RawFilmGrainParams }
%struct.AV1RawFilmGrainParams = type { i8, i16, i8, i8, i8, [14 x i8], [14 x i8], i8, i8, [10 x i8], [10 x i8], i8, [10 x i8], [10 x i8], i8, i8, [24 x i8], [25 x i8], [25 x i8], i8, i8, i8, i8, i16, i8, i8, i16, i8, i8 }

@.str.151 = private unnamed_addr constant [21 x i8] c"is_filter_switchable\00", align 1
@.str.152 = private unnamed_addr constant [21 x i8] c"interpolation_filter\00", align 1
@.str.317 = private unnamed_addr constant [59 x i8] c"%s does not match inferred value: %ld, but should be %ld.\0A\00", align 1

; Function Attrs: nounwind uwtable
define internal i32 @cbs_av1_write_interpolation_filter(ptr noundef %0, ptr noundef %1, ptr noundef %2) #0 {
  %4 = alloca i32, align 4
  %5 = alloca ptr, align 8
  %6 = alloca ptr, align 8
  %7 = alloca ptr, align 8
  %8 = alloca i32, align 4
  %9 = alloca i32, align 4
  store ptr %0, ptr %5, align 8, !tbaa !4
  store ptr %1, ptr %6, align 8, !tbaa !71
  store ptr %2, ptr %7, align 8, !tbaa !159
  call void @llvm.lifetime.start.p0(i64 4, ptr %8) #8
  br label %10

10:                                               ; preds = %3
  br label %11

11:                                               ; preds = %10
  %12 = load ptr, ptr %5, align 8, !tbaa !4
  %13 = load ptr, ptr %6, align 8, !tbaa !71
  %14 = load ptr, ptr %7, align 8, !tbaa !159
  %15 = getelementptr inbounds nuw %struct.AV1RawFrameHeader, ptr %14, i32 0, i32 34
  %16 = load i8, ptr %15, align 1, !tbaa !309
  %17 = zext i8 %16 to i32
  %18 = call i32 @ff_cbs_write_simple_unsigned(ptr noundef %12, ptr noundef %13, i32 noundef 1, ptr noundef @.str.151, i32 noundef %17)
  store i32 %18, ptr %8, align 4, !tbaa !11
  %19 = load i32, ptr %8, align 4, !tbaa !11
  %20 = icmp slt i32 %19, 0
  br i1 %20, label %21, label %23

21:                                               ; preds = %11
  %22 = load i32, ptr %8, align 4, !tbaa !11
  store i32 %22, ptr %4, align 4
  store i32 1, ptr %9, align 4
  br label %70

23:                                               ; preds = %11
  br label %24

24:                                               ; preds = %23
  br label %25

25:                                               ; preds = %24
  br label %26

26:                                               ; preds = %25
  br label %27

27:                                               ; preds = %26
  %28 = load ptr, ptr %7, align 8, !tbaa !159
  %29 = getelementptr inbounds nuw %struct.AV1RawFrameHeader, ptr %28, i32 0, i32 34
  %30 = load i8, ptr %29, align 1, !tbaa !309
  %31 = icmp ne i8 %30, 0
  br i1 %31, label %32, label %50

32:                                               ; preds = %27
  br label %33

33:                                               ; preds = %32
  %34 = load ptr, ptr %7, align 8, !tbaa !159
  %35 = getelementptr inbounds nuw %struct.AV1RawFrameHeader, ptr %34, i32 0, i32 35
  %36 = load i8, ptr %35, align 2, !tbaa !310
  %37 = zext i8 %36 to i32
  %38 = icmp ne i32 %37, 4
  br i1 %38, label %39, label %47

39:                                               ; preds = %33
  %40 = load ptr, ptr %5, align 8, !tbaa !4
  %41 = getelementptr inbounds nuw %struct.CodedBitstreamContext, ptr %40, i32 0, i32 0
  %42 = load ptr, ptr %41, align 8, !tbaa !26
  %43 = load ptr, ptr %7, align 8, !tbaa !159
  %44 = getelementptr inbounds nuw %struct.AV1RawFrameHeader, ptr %43, i32 0, i32 35
  %45 = load i8, ptr %44, align 2, !tbaa !310
  %46 = zext i8 %45 to i64
  call void (ptr, i32, ptr, ...) @av_log(ptr noundef %42, i32 noundef 16, ptr noundef @.str.317, ptr noundef @.str.152, i64 noundef %46, i64 noundef 4)
  store i32 -1094995529, ptr %4, align 4
  store i32 1, ptr %9, align 4
  br label %70

47:                                               ; preds = %33
  br label %48

48:                                               ; preds = %47
  br label %49

49:                                               ; preds = %48
  br label %69

50:                                               ; preds = %27
  br label %51

51:                                               ; preds = %50
  br label %52

52:                                               ; preds = %51
  %53 = load ptr, ptr %5, align 8, !tbaa !4
  %54 = load ptr, ptr %6, align 8, !tbaa !71
  %55 = load ptr, ptr %7, align 8, !tbaa !159
  %56 = getelementptr inbounds nuw %struct.AV1RawFrameHeader, ptr %55, i32 0, i32 35
  %57 = load i8, ptr %56, align 2, !tbaa !310
  %58 = zext i8 %57 to i32
  %59 = call i32 @ff_cbs_write_simple_unsigned(ptr noundef %53, ptr noundef %54, i32 noundef 2, ptr noundef @.str.152, i32 noundef %58)
  store i32 %59, ptr %8, align 4, !tbaa !11
  %60 = load i32, ptr %8, align 4, !tbaa !11
  %61 = icmp slt i32 %60, 0
  br i1 %61, label %62, label %64

62:                                               ; preds = %52
  %63 = load i32, ptr %8, align 4, !tbaa !11
  store i32 %63, ptr %4, align 4
  store i32 1, ptr %9, align 4
  br label %70

64:                                               ; preds = %52
  br label %65

65:                                               ; preds = %64
  br label %66

66:                                               ; preds = %65
  br label %67

67:                                               ; preds = %66
  br label %68

68:                                               ; preds = %67
  br label %69

69:                                               ; preds = %68, %49
  store i32 0, ptr %4, align 4
  store i32 1, ptr %9, align 4
  br label %70

70:                                               ; preds = %69, %62, %39, %21
  call void @llvm.lifetime.end.p0(i64 4, ptr %8) #8
  %71 = load i32, ptr %4, align 4
  ret i32 %71
}