; Function Attrs: nounwind uwtable
define internal fastcc range(i32 -2147483648, 1) i32 @cbs_av1_write_interpolation_filter(ptr noundef %0, ptr noundef %1, ptr noundef readonly captures(none) %2) unnamed_addr #0 {
  %4 = getelementptr inbounds nuw i8, ptr %2, i64 229
  %5 = load i8, ptr %4, align 1, !tbaa !327
  %6 = zext i8 %5 to i32
  %7 = tail call i32 @ff_cbs_write_simple_unsigned(ptr noundef %0, ptr noundef %1, i32 noundef 1, ptr noundef nonnull @.str.151, i32 noundef %6) #8
  %8 = icmp slt i32 %7, 0
  br i1 %8, label %22, label %9

9:                                                ; preds = %3
  %10 = load i8, ptr %4, align 1, !tbaa !327
  %.not = icmp eq i8 %10, 0
  %11 = getelementptr inbounds nuw i8, ptr %2, i64 230
  %12 = load i8, ptr %11, align 2, !tbaa !328
  br i1 %.not, label %17, label %13

13:                                               ; preds = %9
  %.not16 = icmp eq i8 %12, 4
  br i1 %.not16, label %21, label %14

14:                                               ; preds = %13
  %15 = load ptr, ptr %0, align 8, !tbaa !19
  %16 = zext i8 %12 to i64
  tail call void (ptr, i32, ptr, ...) @av_log(ptr noundef %15, i32 noundef 16, ptr noundef nonnull @.str.317, ptr noundef nonnull @.str.152, i64 noundef %16, i64 noundef 4) #8
  br label %22

17:                                               ; preds = %9
  %18 = zext i8 %12 to i32
  %19 = tail call i32 @ff_cbs_write_simple_unsigned(ptr noundef %0, ptr noundef %1, i32 noundef 2, ptr noundef nonnull @.str.152, i32 noundef %18) #8
  %20 = icmp slt i32 %19, 0
  br i1 %20, label %22, label %21

21:                                               ; preds = %17, %13
  br label %22

22:                                               ; preds = %17, %3, %21, %14
  %.0 = phi i32 [ -1094995529, %14 ], [ 0, %21 ], [ %7, %3 ], [ %19, %17 ]
  ret i32 %.0
}